; Function Attrs: mustprogress nofree norecurse nounwind willreturn memory(argmem: readwrite) uwtable
define hidden noundef zeroext i1 @_ZN8reslimit3incEj(ptr noundef nonnull align 8 captures(none) dereferenceable(40) %0, i32 noundef %1) local_unnamed_addr #7 align 2 personality ptr @__gxx_personality_v0 {
  %3 = zext i32 %1 to i64
  %4 = getelementptr inbounds nuw i8, ptr %0, i64 8
  %5 = load i64, ptr %4, align 8, !tbaa !23
  %6 = add i64 %5, %3
  store i64 %6, ptr %4, align 8, !tbaa !23
  %7 = getelementptr inbounds nuw i8, ptr %0, i64 4
  %8 = load i8, ptr %7, align 4, !tbaa !11, !range !25, !noundef !26
  %9 = trunc nuw i8 %8 to i1
  br i1 %9, label %_ZN8reslimit12not_canceledEv.exit, label %10

10:                                               ; preds = %2
  %11 = load atomic i32, ptr %0 seq_cst, align 8
  %12 = icmp eq i32 %11, 0
  br i1 %12, label %13, label %_ZN8reslimit12not_canceledEv.exit

13:                                               ; preds = %10
  %14 = load i64, ptr %4, align 8, !tbaa !23
  %15 = getelementptr inbounds nuw i8, ptr %0, i64 16
  %16 = load i64, ptr %15, align 8, !tbaa !24
  %.not.i = icmp ule i64 %14, %16
  br label %_ZN8reslimit12not_canceledEv.exit

_ZN8reslimit12not_canceledEv.exit:                ; preds = %2, %10, %13
  %17 = phi i1 [ true, %2 ], [ false, %10 ], [ %.not.i, %13 ]
  ret i1 %17
}